; Function Attrs: mustprogress uwtable
define noundef ptr @_ZN9benchmark13StringFromEnvEPKcS1_(ptr noundef captures(address_is_null) %0, ptr noundef readnone captures(ret: address, provenance) %1) local_unnamed_addr #3 personality ptr @__gxx_personality_v0 {
  %3 = alloca %"class.std::__cxx11::basic_string", align 8
  call void @llvm.lifetime.start.p0(i64 32, ptr nonnull %3) #21
  call fastcc void @_ZN9benchmark12_GLOBAL__N_112FlagToEnvVarB5cxx11EPKc(ptr dead_on_unwind noalias writable align 8 %3, ptr noundef %0)
  %4 = load ptr, ptr %3, align 8, !tbaa !3
  %5 = call ptr @getenv(ptr noundef %4) #21
  %6 = getelementptr inbounds nuw i8, ptr %3, i64 16
  %7 = icmp eq ptr %4, %6
  br i1 %7, label %_ZNKSt7__cxx1112basic_stringIcSt11char_traitsIcESaIcEE11_M_is_localEv.exit.thread.i.i, label %_ZNKSt7__cxx1112basic_stringIcSt11char_traitsIcESaIcEE11_M_is_localEv.exit.i.i

_ZNKSt7__cxx1112basic_stringIcSt11char_traitsIcESaIcEE11_M_is_localEv.exit.thread.i.i: ; preds = %2
  %8 = getelementptr inbounds nuw i8, ptr %3, i64 8
  %9 = load i64, ptr %8, align 8, !tbaa !14
  %10 = icmp ult i64 %9, 16
  call void @llvm.assume(i1 %10)
  br label %_ZNSt7__cxx1112basic_stringIcSt11char_traitsIcESaIcEED2Ev.exit

_ZNKSt7__cxx1112basic_stringIcSt11char_traitsIcESaIcEE11_M_is_localEv.exit.i.i: ; preds = %2
  %11 = load i64, ptr %6, align 8, !tbaa !13
  %12 = add i64 %11, 1
  call void @_ZdlPvm(ptr noundef %4, i64 noundef %12) #22
  br label %_ZNSt7__cxx1112basic_stringIcSt11char_traitsIcESaIcEED2Ev.exit

_ZNSt7__cxx1112basic_stringIcSt11char_traitsIcESaIcEED2Ev.exit: ; preds = %_ZNKSt7__cxx1112basic_stringIcSt11char_traitsIcESaIcEE11_M_is_localEv.exit.thread.i.i, %_ZNKSt7__cxx1112basic_stringIcSt11char_traitsIcESaIcEE11_M_is_localEv.exit.i.i
  %13 = icmp eq ptr %5, null
  %14 = select i1 %13, ptr %1, ptr %5
  call void @llvm.lifetime.end.p0(i64 32, ptr nonnull %3) #21
  ret ptr %14
}